ccopy_reg
_reconstructor
p1
(cdebian_linux.config
ConfigCore
p2
c__builtin__
dict
p3
(dp4
(S'description'
S'powerpc'
p5
NS'powerpc64'
tp6
(dp7
S'hardware'
p8
S'64-bit PowerPC'
p9
ss(S'image'
S'amd64'
p10
tp11
(dp12
S'configs'
p13
(lp14
S'kernelarch-x86/config'
p15
asS'bootloaders'
p16
(lp17
S'grub-pc'
p18
aS'extlinux'
p19
aS'lilo'
p20
ass(S'image'
S'mipsel'
p21
NS'4kc-malta'
tp22
(dp23
S'configs'
p24
(lp25
S'mips/config.4kc-malta'
p26
ass(S'description'
NS'rt'
p27
tp28
(dp29
S'part-long-rt'
p30
S'This kernel includes the PREEMPT_RT realtime patch set.'
p31
sS'parts'
p32
(lp33
S'rt'
p34
asS'part-short-rt'
p35
S'PREEMPT_RT'
p36
ss(S'base'
g10
S'none'
p37
tp38
(dp39
S'flavours'
p40
(lp41
S'amd64'
p42
ass(S'description'
g21
NS'sb1-bcm91250a'
tp43
(dp44
S'hardware'
p45
S'BCM91250A'
p46
sS'hardware-long'
p47
S'Broadcom BCM91250A systems (aka SWARM)'
p48
ss(S'description'
S'armel'
p49
NS'kirkwood'
tp50
(dp51
S'hardware'
p52
S'Marvell Kirkwood'
p53
sS'hardware-long'
p54
S'Marvell Kirkwood based systems (SheevaPlug, QNAP TS-119/TS-219, etc)'
p55
ss(S'image'
S'ia64'
p56
tp57
(dp58
S'suggests'
p59
S'fdutils'
p60
sS'bootloaders'
p61
(lp62
S'elilo'
p63
ass(S'build'
g49
NS'iop32x'
tp64
(dp65
S'image-file'
p66
S'arch/arm/boot/zImage'
p67
ss(S'base'
S'hppa'
p68
NS'parisc64'
tp69
(dp70
S'override-host-type'
p71
S'hppa64-linux-gnu'
p72
sS'cflags'
p73
S'-fno-cse-follow-jumps'
p74
ss(S'xen'
S'i386'
p75
S'none'
p76
S'amd64'
tp77
(dp78
S'flavours'
p79
(lp80
S'amd64'
p81
asS'dom0-support'
p82
I01
ss(S'image'
S'ppc64'
p83
NS'powerpc64'
tp84
(dp85
S'configs'
p86
(lp87
S'powerpc/config.powerpc64'
p88
ass(S'description'
S's390x'
p89
NS's390x'
tp90
(dp91
S'hardware'
p92
S'IBM zSeries'
p93
sS'parts'
p94
(lp95
S'reader'
p96
ass(S'description'
g10
g37
S'amd64'
tp97
(dp98
S'parts'
p99
(lp100
S'xen'
p101
ass(S'base'
p102
g83
S'none'
p103
tp104
(dp105
S'implicit-flavour'
p106
I01
sS'flavours'
p107
(lp108
S'powerpc64'
p109
ass(S'build'
S'armhf'
p110
NS'vexpress'
tp111
(dp112
S'image-file'
p113
S'arch/arm/boot/zImage'
p114
ss(S'base'
S'alpha'
p115
tp116
(dp117
S'kernel-arch'
p118
S'alpha'
p119
sS'featuresets'
p120
(lp121
g103
ass(S'build'
g49
NS'ixp4xx'
tp122
(dp123
S'image-file'
p124
S'arch/arm/boot/zImage'
p125
ss(g102
g110
g103
tp126
(dp127
g106
I01
sg107
(lp128
S'mx5'
p129
aS'omap'
p130
aS'vexpress'
p131
ass(S'description'
S'mips'
p132
NS'r4k-ip22'
tp133
(dp134
S'hardware'
p135
S'SGI IP22'
p136
sS'hardware-long'
p137
S'SGI IP22 systems (Indy, Indigo2)'
p138
ss(S'description'
g132
NS'sb1a-bcm91480b'
tp139
(dp140
S'hardware'
p141
S'BCM91480B'
p142
sS'hardware-long'
p143
S'Broadcom BCM91480B systems (aka BigSur)'
p144
ss(S'base'
g75
S'rt'
tp145
(dp146
S'flavours'
p147
(lp148
S'686-pae'
p149
ass(S'description'
S'm68k'
p150
NS'mac'
tp151
(dp152
S'hardware'
p153
S'Macintosh'
p154
ss(S'description'
S's390'
p155
NS's390-tape'
tp156
(dp157
S'hardware'
p158
S'IBM S/390'
p159
sS'parts'
p160
(lp161
S'tape'
p162
ass(S'description'
g56
NS'mckinley'
tp163
(dp164
S'hardware'
p165
S'Itanium II'
p166
ss(S'image'
g75
NS'amd64'
tp167
(dp168
S'configs'
p169
(lp170
S'kernelarch-x86/config-arch-64'
p171
asS'recommends'
p172
S'libc6-i686'
p173
ss(g102
g5
g103
tp174
(dp175
g106
I01
sg107
(lp176
S'powerpc'
p177
aS'powerpc-smp'
p178
aS'powerpc64'
p179
ass(S'description'
S'sparc64'
p180
NS'sparc64'
tp181
(dp182
S'hardware'
p183
S'uniprocessor 64-bit UltraSPARC'
p184
ss(S'image'
g5
tp185
(dp186
S'suggests'
p187
S'mkvmlinuz'
p188
ss(S'build'
g110
NS'omap'
tp189
(dp190
S'image-file'
p191
S'arch/arm/boot/zImage'
p192
ss(S'description'
g49
NS'mv78xx0'
tp193
(dp194
S'hardware'
p195
S'Marvell 78xx0'
p196
sS'hardware-long'
p197
S'Marvell DB-78xx0-BP Development Board'
p198
ss(S'base'
g10
S'rt'
tp199
(dp200
S'flavours'
p201
(lp202
S'amd64'
p203
ass(S'description'
g49
NS'ixp4xx'
tp204
(dp205
S'hardware'
p206
S'IXP4xx'
p207
sS'hardware-long'
p208
S'IXP4xx based systems (Linksys NSLU2, etc)'
p209
ss(S'description'
g89
NS's390x-tape'
tp210
(dp211
S'hardware'
p212
S'IBM zSeries'
p213
sS'parts'
p214
(lp215
S'tape'
p216
ass(S'description'
g75
g76
S'amd64'
tp217
(dp218
S'parts'
p219
(lp220
S'xen'
p221
ass(S'description'
g75
NS'686-pae'
tp222
(dp223
S'hardware'
p224
S'modern PCs'
p225
sS'parts'
p226
(lp227
S'pae'
p228
asS'hardware-long'
p229
S'PCs with one or more processors supporting PAE'
p230
ss(S'base'
g75
tp231
(dp232
S'kernel-arch'
p233
S'x86'
p234
sS'featuresets'
p235
(lp236
S'none'
p237
aS'rt'
p238
ass(S'description'
g49
NS'iop32x'
tp239
(dp240
S'hardware'
p241
S'IOP32x'
p242
sS'hardware-long'
p243
S'IOP32x based systems (Thecus N2100, etc)'
p244
ss(S'base'
g21
tp245
(dp246
S'kernel-arch'
p247
S'mips'
p248
sg120
(lp249
g103
ass(S'description'
g132
NS'octeon'
tp250
(dp251
S'hardware'
p252
S'Octeon'
p253
sS'hardware-long'
p254
S'Cavium Networks Octeon'
p255
ss(S'description'
S'sparc'
p256
NS'sparc32'
tp257
(dp258
S'hardware'
p259
S'uniprocessor sparc32 (sun4m)'
p260
ss(S'image'
g49
NS'orion5x'
tp261
(dp262
S'check-size'
p263
S'1572792'
p264
sS'recommends'
p265
S'uboot-mkimage'
p266
ss(S'image'
g155
NS's390-tape'
tp267
(dp268
S'override-localversion'
p269
S's390'
p270
sS'type'
p271
S'plain-s390-tape'
p272
sS'initramfs'
p273
I00
ss(g102
g21
g103
tp274
(dp275
g106
I01
sg107
(lp276
S'r5k-cobalt'
p277
aS'sb1-bcm91250a'
p278
aS'sb1a-bcm91480b'
p279
aS'4kc-malta'
p280
aS'5kc-malta'
p281
aS'loongson-2f'
p282
ass(S'relations'
tp283
(dp284
S'initramfs-fallback'
p285
S'linux-initramfs-tool'
p286
sS'gcc-4.5'
p287
S'gcc-4.5'
p288
sS'gcc-4.6'
p289
S'gcc-4.6'
p290
sS'initramfs-tools'
p291
S'initramfs-tools (>= 0.99~)'
p292
sS'gcc-4.4'
p293
S'gcc-4.4'
p294
ss(S'build'
g49
NS'orion5x'
tp295
(dp296
S'image-file'
p297
S'arch/arm/boot/zImage'
p298
ss(S'image'
g180
NS'sparc64'
tp299
(dp300
S'configs'
p301
(lp302
S'sparc/config.sparc64'
p303
ass(S'description'
g150
NS'mvme147'
tp304
(dp305
S'hardware'
p306
S'Motorola MVME147'
p307
ss(S'description'
S'sh4'
p308
NS'sh7785lcr'
tp309
(dp310
S'hardware'
p311
S'sh7785lcr'
p312
sS'hardware-long'
p313
S'Renesas SH7785 reference board'
p314
ss(g102
g308
g103
tp315
(dp316
g106
I01
sg107
(lp317
S'sh7751r'
p318
aS'sh7785lcr'
p319
ass(S'base'
g110
tp320
(dp321
S'kernel-arch'
p322
S'arm'
p323
sg120
(lp324
g103
ass(S'image'
g256
NS'sparc32'
tp325
(dp326
S'image-postproc'
p327
S'sparc32-image-postproc'
p328
ss(S'description'
g49
NS'versatile'
tp329
(dp330
S'hardware'
p331
S'Versatile'
p332
sS'hardware-long'
p333
S'Versatile systems (PB, AB, Qemu)'
p334
ss(S'base'
g49
tp335
(dp336
S'kernel-arch'
p337
S'arm'
p338
sg120
(lp339
g103
ass(S'base'
g68
NS'parisc64-smp'
tp340
(dp341
S'override-host-type'
p342
S'hppa64-linux-gnu'
p343
sS'cflags'
p344
S'-fno-cse-follow-jumps'
p345
ss(S'image'
g89
NS's390x-tape'
tp346
(dp347
S'configs'
p348
(lp349
S's390/config.s390x-tape'
p350
asS'override-localversion'
p351
S's390x'
p352
sS'type'
p353
S'plain-s390-tape'
p354
sS'initramfs'
p355
I00
ss(S'description'
g308
NS'sh7751r'
tp356
(dp357
S'hardware'
p358
S'sh7751r'
p359
sS'hardware-long'
p360
S'Renesas SH7751R R2D plus board'
p361
ss(S'description'
g180
NS'sparc64-smp'
tp362
(dp363
S'hardware'
p364
S'multiprocessor 64-bit UltraSPARC'
p365
ss(S'version'
p366
tp367
(dp368
S'abiname'
p369
S'3.2.0-4'
p370
sS'source'
p371
V3.2.32-1
p372
ss(S'description'
g155
NS's390x'
tp373
(dp374
S'hardware'
p375
S'IBM zSeries'
p376
sS'parts'
p377
(lp378
S'reader'
p379
ass(g102
g155
g103
tp380
(dp381
g106
I01
sg107
(lp382
S's390x'
p383
aS's390x-tape'
p384
ass(g102
g89
g103
tp385
(dp386
g106
I01
sg107
(lp387
S's390x'
p388
aS's390x-tape'
p389
ass(S'base'
g132
tp390
(dp391
S'kernel-arch'
p392
S'mips'
p393
sg120
(lp394
g103
ass(S'image'
g75
NS'686-pae'
tp395
(dp396
S'configs'
p397
(lp398
S'kernelarch-x86/config-arch-32'
p399
asS'recommends'
p400
S'libc6-i686'
p401
ss(S'build'
g10
tp402
(dp403
S'debug-info'
p404
I01
ss(S'description'
g56
NS'itanium'
tp405
(dp406
S'hardware'
p407
S'Itanium'
p408
ss(S'image'
g21
tp409
(dp410
S'configs'
p411
(lp412
S'kernelarch-mips/config'
p413
aS'mipsel/config'
p414
asS'initramfs'
p415
I00
ss(S'xen'
g75
g76
S'686-pae'
tp416
(dp417
S'flavours'
p418
(lp419
S'i386'
p420
aS'amd64'
p421
asS'dom0-support'
p422
I01
ss(S'description'
g21
NS'5kc-malta'
tp423
(dp424
S'hardware'
p425
S'MIPS Malta (64-bit)'
p426
sS'hardware-long'
p427
S'MIPS Malta boards (64-bit)'
p428
ss(S'description'
g256
NS'sparc64-smp'
tp429
(dp430
S'hardware'
p431
S'multiprocessor 64-bit UltraSPARC'
p432
ss(S'image'
g49
NS'ixp4xx'
tp433
(dp434
S'check-size'
p435
S'1441760'
p436
ss(S'image'
g5
NS'powerpc-smp'
tp437
(dp438
S'configs'
p439
(lp440
S'powerpc/config.powerpc'
p441
aS'powerpc/config.powerpc-smp'
p442
ass(S'image'
g180
NS'sparc64-smp'
tp443
(dp444
S'configs'
p445
(lp446
S'sparc/config.sparc64-smp'
p447
ass(S'base'
g10
tp448
(dp449
S'kernel-arch'
p450
S'x86'
p451
sS'featuresets'
p452
(lp453
S'none'
p454
aS'rt'
p455
ass(S'base'
g56
tp456
(dp457
S'kernel-arch'
p458
S'ia64'
p459
sg120
(lp460
g103
ass(S'build'
g155
NS's390-tape'
tp461
(dp462
S'modules'
p463
I00
ss(S'image'
g49
NS'iop32x'
tp464
(dp465
S'check-size'
p466
S'1441784'
p467
ss(S'image'
g21
NS'5kc-malta'
tp468
(dp469
S'configs'
p470
(lp471
S'mips/config.5kc-malta'
p472
ass(g102
g49
g103
tp473
(dp474
g106
I01
sg107
(lp475
S'iop32x'
p476
aS'ixp4xx'
p477
aS'kirkwood'
p478
aS'mv78xx0'
p479
aS'orion5x'
p480
aS'versatile'
p481
ass(S'image'
g89
NS's390x'
tp482
(dp483
S'configs'
p484
(lp485
S's390/config.s390x'
p486
ass(S'description'
g110
NS'omap'
tp487
(dp488
S'hardware'
p489
S'TI OMAP3+'
p490
sS'hardware-long'
p491
S'Texas Instruments OMAP3 or OMAP4 based systems'
p492
ss(S'build'
g155
NS's390x-tape'
tp493
(dp494
S'modules'
p495
I00
ss(S'description'
g132
NS'sb1-bcm91250a'
tp496
(dp497
S'hardware'
p498
S'BCM91250A'
p499
sS'hardware-long'
p500
S'Broadcom BCM91250A systems (aka SWARM)'
p501
ss(S'description'
g155
NS's390x-tape'
tp502
(dp503
S'hardware'
p504
S'IBM zSeries'
p505
sS'parts'
p506
(lp507
S'tape'
p508
ass(S'description'
g75
tp509
(dp510
S'part-long-pae'
p511
S'This kernel requires PAE (Physical Address Extension).\nThis feature is supported by the Intel Pentium Pro/II/III/4/4M/D, Xeon,\nCore and Atom; AMD Geode NX, Athlon (K7), Duron, Opteron, Sempron,\nTurion or Phenom; Transmeta Efficeon; VIA C7; and some other processors.'
p512
ss(S'image'
g110
tp513
(dp514
S'suggests'
p515
S'fdutils'
p516
sS'configs'
p517
(lp518
S'armel/config'
p519
aS'armhf/config'
p520
ass(S'xen'
g10
g37
S'amd64'
tp521
(dp522
S'flavours'
p523
(lp524
S'amd64'
p525
asS'dom0-support'
p526
I01
ss(S'image'
g49
tp527
(dp528
S'suggests'
p529
S'fdutils'
p530
ss(S'image'
g155
tp531
(dp532
S'bootloaders'
p533
(lp534
S's390-tools'
p535
ass(S'abi'
g89
tp536
(dp537
S'ignore-changes'
p538
(lp539
S'arch_pick_mmap_layout'
p540
ass(S'image'
g68
tp541
(dp542
S'suggests'
p543
S'palo'
p544
ss(S'relations'
g68
tp545
(dp546
S'gcc-4.4'
p547
S'gcc-4.4, binutils-hppa64, gcc-4.4-hppa64'
p548
ss(S'description'
g68
NS'parisc'
tp549
(dp550
S'hardware'
p551
S'32-bit PA-RISC'
p552
ss(S'abi'
g155
tp553
(dp554
S'ignore-changes'
p555
(lp556
S'arch_pick_mmap_layout'
p557
ass(S'description'
g5
NS'powerpc'
tp558
(dp559
S'hardware'
p560
S'uniprocessor 32-bit PowerPC'
p561
ss(S'description'
g75
NS'amd64'
tp562
(dp563
S'hardware'
p564
S'64-bit PCs'
p565
sS'hardware-long'
p566
S'PCs with AMD64 or Intel 64 processors'
p567
ss(S'description'
g68
NS'parisc64'
tp568
(dp569
S'hardware'
p570
S'64-bit PA-RISC'
p571
ss(g102
g68
g103
tp572
(dp573
g106
I01
sg107
(lp574
S'parisc'
p575
aS'parisc-smp'
p576
aS'parisc64'
p577
aS'parisc64-smp'
p578
ass(S'image'
g115
tp579
(dp580
S'suggests'
p581
S'aboot, fdutils'
p582
ss(S'description'
g110
NS'vexpress'
tp583
(dp584
S'hardware'
p585
S'ARM Ltd. Versatile Express'
p586
sS'hardware-long'
p587
S'ARM Ltd. Versatile Express family of processors'
p588
ss(S'base'
g180
tp589
(dp590
S'kernel-arch'
p591
S'sparc'
p592
sg120
(lp593
g103
ass(S'description'
g21
NS'loongson-2f'
tp594
(dp595
S'hardware'
p596
S'Loongson 2F'
p597
sS'hardware-long'
p598
S'Lemote Loongson 2F systems'
p599
ss(S'base'
g89
tp600
(dp601
S'kernel-arch'
p602
S's390'
p603
sg120
(lp604
g103
ass(S'build'
g49
NS'mv78xx0'
tp605
(dp606
S'image-file'
p607
S'arch/arm/boot/zImage'
p608
ss(S'image'
g110
NS'omap'
tp609
(dp610
S'recommends'
p611
S'uboot-mkimage'
p612
ss(S'description'
g115
NS'alpha-generic'
tp613
(dp614
S'hardware'
p615
S'Alpha'
p616
sS'hardware-long'
p617
S'DEC Alpha systems with extended kernel start address (Wildfire, Titan, Marvel)'
p618
ss(S'image'
g83
tp619
(dp620
S'suggests'
p621
S'mkvmlinuz'
p622
sS'configs'
p623
(lp624
S'powerpc/config'
p625
ass(S'image'
g132
tp626
(dp627
S'configs'
p628
(lp629
S'kernelarch-mips/config'
p630
aS'mips/config'
p631
asS'initramfs'
p632
I00
ss(S'image'
g75
tp633
(dp634
S'configs'
p635
(lp636
S'kernelarch-x86/config'
p637
asS'bootloaders'
p638
(lp639
S'grub-pc'
p640
aS'extlinux'
p641
aS'lilo'
p642
ass(S'description'
g10
NS'amd64'
tp643
(dp644
S'hardware'
p645
S'64-bit PCs'
p646
sS'hardware-long'
p647
S'PCs with AMD64 or Intel 64 processors'
p648
ss(g102
g256
g103
tp649
(dp650
g106
I01
sg107
(lp651
S'sparc64'
p652
aS'sparc64-smp'
p653
ass(S'base'
g83
tp654
(dp655
S'kernel-arch'
p656
S'powerpc'
p657
sg120
(lp658
g103
ass(g102
g132
g103
tp659
(dp660
g106
I01
sg107
(lp661
S'r4k-ip22'
p662
aS'r5k-ip32'
p663
aS'sb1-bcm91250a'
p664
aS'sb1a-bcm91480b'
p665
aS'4kc-malta'
p666
aS'5kc-malta'
p667
aS'octeon'
p668
ass(S'description'
g75
g76
S'686-pae'
tp669
(dp670
S'parts'
p671
(lp672
S'xen'
p673
ass(g102
g56
g103
tp674
(dp675
g106
I01
sg107
(lp676
S'itanium'
p677
aS'mckinley'
p678
ass(S'description'
g155
tp679
(dp680
S'part-short-tape'
p681
S'IPL from tape'
p682
sS'part-long-tape'
p683
S'This kernel has support to IPL (boot) from a tape.'
p684
sS'part-long-reader'
p685
S'This kernel has support to IPL (boot) from a VM reader or DASD device.'
p686
ss(S'build'
g155
NS's390x'
tp687
(dp688
S'debug-info'
p689
I01
ss(g102
g115
g103
tp690
(dp691
g106
I01
sg107
(lp692
S'alpha-generic'
p693
aS'alpha-smp'
p694
aS'alpha-legacy'
p695
ass(S'description'
g150
NS'amiga'
tp696
(dp697
S'hardware'
p698
S'Amiga'
p699
ss(S'description'
g5
NS'powerpc-smp'
tp700
(dp701
S'hardware'
p702
S'multiprocessor 32-bit PowerPC'
p703
ss(S'description'
g68
NS'parisc-smp'
tp704
(dp705
S'hardware'
p706
S'multiprocessor 32-bit PA-RISC'
p707
ss(S'build'
g308
NS'sh7785lcr'
tp708
(dp709
S'image-file'
p710
S'arch/sh/boot/zImage'
p711
ss(S'build'
g308
NS'sh7751r'
tp712
(dp713
S'image-file'
p714
S'arch/sh/boot/zImage'
p715
ss(S'image'
g150
tp716
(dp717
S'suggests'
p718
S'vmelilo, fdutils'
p719
sS'initramfs'
p720
I00
ss(S'image'
g21
NS'sb1-bcm91250a'
tp721
(dp722
S'configs'
p723
(lp724
S'mips/config.sb1-bcm91250a'
p725
ass(S'description'
g150
NS'atari'
tp726
(dp727
S'hardware'
p728
S'Atari'
p729
ss(S'description'
g83
NS'powerpc64'
tp730
(dp731
S'hardware'
p732
S'64-bit PowerPC'
p733
ss(S'description'
g132
NS'r5k-ip32'
tp734
(dp735
S'hardware'
p736
S'SGI IP32'
p737
sS'hardware-long'
p738
S'SGI IP32 systems (O2)'
p739
ss(S'abi'
Ng27
tp740
(dp741
S'ignore-changes'
p742
(lp743
S'*'
ass(S'image'
g308
tp744
(dp745
S'suggests'
p746
S'fdutils'
p747
ss(S'description'
g110
NS'mx5'
tp748
(dp749
S'hardware'
p750
S'Freescale i.MX51'
p751
sS'hardware-long'
p752
S'Support for Freescale i.MX51 family of processors'
p753
ss(S'base'
g68
tp754
(dp755
S'kernel-arch'
p756
S'parisc'
p757
sg120
(lp758
g103
asS'compiler'
p759
S'gcc-4.4'
p760
ss(S'base'
g308
tp761
(dp762
S'kernel-arch'
p763
S'sh'
p764
sg120
(lp765
g103
ass(S'image'
g256
tp766
(dp767
S'suggests'
p768
S'silo, fdutils'
p769
ss(S'description'
tp770
(dp771
S'part-long-up'
p772
S'This kernel is not suitable for SMP (multi-processor,\nmulti-core or hyper-threaded) systems.'
p773
sS'part-long-xen'
p774
S'This kernel also runs on a Xen hypervisor.\nIt supports both privileged (dom0) and unprivileged (domU) operation.'
p775
ss(S'description'
g68
NS'parisc64-smp'
tp776
(dp777
S'hardware'
p778
S'multiprocessor 64-bit PA-RISC'
p779
ss(S'description'
g115
NS'alpha-smp'
tp780
(dp781
S'hardware'
p782
S'Alpha SMP'
p783
sS'hardware-long'
p784
S'DEC Alpha SMP systems with extended kernel start address (Wildfire, Titan, Marvel)'
p785
ss(S'description'
g132
NS'5kc-malta'
tp786
(dp787
S'hardware'
p788
S'MIPS Malta (64-bit)'
p789
sS'hardware-long'
p790
S'MIPS Malta boards (64-bit)'
p791
ss(S'base'
g155
tp792
(dp793
S'kernel-arch'
p794
S's390'
p795
sg120
(lp796
g103
ass(S'image'
g180
tp797
(dp798
S'suggests'
p799
S'silo, fdutils'
p800
sS'configs'
p801
(lp802
S'sparc/config'
p803
ass(S'build'
g89
NS's390x'
tp804
(dp805
S'debug-info'
p806
I01
ss(S'image'
g308
NS'sh7785lcr'
tp807
(dp808
S'check-size'
p809
S'4194304'
p810
sS'recommends'
p811
S'uboot-mkimage'
p812
ss(S'description'
g75
NS'486'
tp813
(dp814
S'hardware'
p815
S'older PCs'
p816
sS'parts'
p817
(lp818
S'up'
p819
asS'hardware-long'
p820
S'PCs with a single processor not supporting PAE'
p821
ss(S'base'
g5
tp822
(dp823
S'kernel-arch'
p824
S'powerpc'
p825
sg120
(lp826
g103
ass(S'image'
g75
NS'486'
tp827
(dp828
S'configs'
p829
(lp830
S'kernelarch-x86/config-arch-32'
p831
ass(S'description'
g150
NS'mvme16x'
tp832
(dp833
S'hardware'
p834
S'Motorola MVME162/6/7, MVME172/7'
p835
ss(S'description'
g21
NS'sb1a-bcm91480b'
tp836
(dp837
S'hardware'
p838
S'BCM91480B'
p839
sS'hardware-long'
p840
S'Broadcom BCM91480B systems (aka BigSur)'
p841
ss(S'description'
g89
tp842
(dp843
S'part-short-tape'
p844
S'IPL from tape'
p845
sS'part-long-tape'
p846
S'This kernel has support to IPL (boot) from a tape.'
p847
sS'part-long-reader'
p848
S'This kernel has support to IPL (boot) from a VM reader or DASD device.'
p849
ss(S'base'
g75
g76
tp850
(dp851
S'flavours'
p852
(lp853
S'486'
p854
aS'686-pae'
p855
aS'amd64'
p856
ass(S'abi'
tp857
(dp858
S'abiname'
p859
S'4'
sS'ignore-changes'
p860
(lp861
S'module:net/l2tp/*'
p862
aS'__rpc_wait_for_completion_task'
p863
aS'bc_svc_process'
p864
aS'nfs4*'
p865
aS'nfs_*'
p866
aS'nlmclnt_*'
p867
aS'nlmsvc_*'
p868
aS'pnfs_*'
p869
aS'put_lseg'
p870
aS'put_rpccred'
p871
aS'rpc_*'
p872
aS'rpcauth_*'
p873
aS'rpcb_getport_async'
p874
aS'svc_*'
p875
aS'svcauth_unix_set_client'
p876
aS'unix_domain_find'
p877
aS'xprt_*'
p878
ass(S'description'
g49
NS'orion5x'
tp879
(dp880
S'hardware'
p881
S'Marvell Orion'
p882
sS'hardware-long'
p883
S'Marvell Orion 5181, 5182 and 5281 based systems (QNAP TS-109/TS-209, etc)'
p884
ss(S'description'
g21
NS'r5k-cobalt'
tp885
(dp886
S'hardware'
p887
S'Cobalt'
p888
sS'hardware-long'
p889
S'Cobalt systems (Qube, RaQ, Qube2, RaQ2)'
p890
ss(S'build'
g49
NS'kirkwood'
tp891
(dp892
S'image-file'
p893
S'arch/arm/boot/zImage'
p894
ss(S'image'
g21
NS'sb1a-bcm91480b'
tp895
(dp896
S'configs'
p897
(lp898
S'mips/config.sb1a-bcm91480b'
p899
ass(g102
g150
g103
tp900
(dp901
g106
I01
sg107
(lp902
S'amiga'
p903
aS'atari'
p904
aS'bvme6000'
p905
aS'mac'
p906
aS'mvme147'
p907
aS'mvme16x'
p908
ass(S'base'
tp909
(dp910
S'arches'
p911
(lp912
S'alpha'
p913
aS'amd64'
p914
aS'armel'
p915
aS'armhf'
p916
aS'hppa'
p917
aS'i386'
p918
aS'ia64'
p919
aS'm68k'
p920
aS'mips'
p921
aS'mipsel'
p922
aS'powerpc'
p923
aS'ppc64'
p924
aS's390'
p925
aS's390x'
p926
aS'sh4'
p927
aS'sparc'
p928
aS'sparc64'
p929
asS'featuresets'
p930
(lp931
S'none'
p932
aS'rt'
p933
asS'compiler'
p934
S'gcc-4.6'
p935
ss(S'image'
g155
NS's390x-tape'
tp936
(dp937
S'override-localversion'
p938
S's390x'
p939
sS'type'
p940
S'plain-s390-tape'
p941
sS'initramfs'
p942
I00
ss(S'image'
g49
NS'kirkwood'
tp943
(dp944
S'check-size'
p945
S'2097080'
p946
sS'recommends'
p947
S'uboot-mkimage'
p948
ss(S'description'
g150
NS'bvme6000'
tp949
(dp950
S'hardware'
p951
S'BVM BVME4000 and BVME6000'
p952
ss(S'build'
g89
NS's390x-tape'
tp953
(dp954
S'modules'
p955
I00
ss(S'base'
g256
tp956
(dp957
S'kernel-arch'
p958
S'sparc'
p959
sg120
(lp960
g103
ass(S'base'
g150
tp961
(dp962
S'kernel-arch'
p963
S'm68k'
p964
sg120
(lp965
g103
asS'cflags'
p966
S'-ffreestanding'
p967
sS'compiler'
p968
S'gcc-4.6'
p969
ss(S'image'
tp970
(dp971
S'initramfs-generators'
p972
(lp973
S'initramfs-tools'
p974
aS'initramfs-fallback'
p975
asS'type'
p976
S'plain'
p977
ss(S'image'
g21
NS'loongson-2f'
tp978
(dp979
S'recommends'
p980
S'libc6-loongson2f'
p981
ss(g102
g180
g103
tp982
(dp983
g106
I01
sg107
(lp984
S'sparc64'
p985
aS'sparc64-smp'
p986
ass(S'description'
g132
NS'4kc-malta'
tp987
(dp988
S'hardware'
p989
S'MIPS Malta'
p990
sS'hardware-long'
p991
S'MIPS Malta boards'
p992
ss(S'description'
g155
NS's390'
tp993
(dp994
S'hardware'
p995
S'IBM S/390'
p996
sS'parts'
p997
(lp998
S'reader'
p999
ass(S'build'
g75
NS'686-pae'
tp1000
(dp1001
S'debug-info'
p1002
I01
ss(S'description'
g256
NS'sparc64'
tp1003
(dp1004
S'hardware'
p1005
S'uniprocessor 64-bit UltraSPARC'
p1006
ss(S'base'
NS'rt'
tp1007
(dp1008
S'enabled'
p1009
I01
ss(S'image'
g89
tp1010
(dp1011
S'configs'
p1012
(lp1013
S's390/config'
p1014
asS'bootloaders'
p1015
(lp1016
S's390-tools'
p1017
ass(S'description'
g21
NS'4kc-malta'
tp1018
(dp1019
S'hardware'
p1020
S'MIPS Malta'
p1021
sS'hardware-long'
p1022
S'MIPS Malta boards'
p1023
ss(S'image'
g10
NS'amd64'
tp1024
(dp1025
S'configs'
p1026
(lp1027
S'kernelarch-x86/config-arch-64'
p1028
ass(S'build'
g110
NS'mx5'
tp1029
(dp1030
S'image-file'
p1031
S'arch/arm/boot/zImage'
p1032
ss(S'description'
g115
NS'alpha-legacy'
tp1033
(dp1034
S'hardware'
p1035
S'Alpha Legacy'
p1036
sS'hardware-long'
p1037
S'DEC Alpha systems with legacy kernel start address'
p1038
sstRp1039
.