ccopy_reg
_reconstructor
p1
(cdebian_linux.config
ConfigCore
p2
c__builtin__
dict
p3
(dp4
(S'image'
S'armhf'
p5
NS'sun4i'
tp6
(dp7
S'recommends'
p8
S'uboot-mkimage'
p9
ss(S'base'
tp10
(dp11
S'arches'
p12
(lp13
S'armhf'
p14
asS'featuresets'
p15
(lp16
S'none'
p17
asS'compiler'
p18
S'gcc-4.6'
p19
ss(S'description'
g5
NS'sun4i'
tp20
(dp21
S'hardware'
p22
S'Allwinner A10'
p23
sS'hardware-long'
p24
S'Allwinner A10 based (cubie)'
p25
ss(S'description'
tp26
(dp27
S'part-long-up'
p28
S'This kernel is not suitable for SMP (multi-processor,\nmulti-core or hyper-threaded) systems.'
p29
sS'part-long-xen'
p30
S'This kernel also runs on a Xen hypervisor.\nIt supports both privileged (dom0) and unprivileged (domU) operation.'
p31
ss(S'abi'
tp32
(dp33
S'abiname'
p34
S'4.sunxi.1'
p35
ss(S'image'
tp36
(dp37
S'initramfs-generators'
p38
(lp39
S'initramfs-tools'
p40
aS'initramfs-fallback'
p41
asS'type'
p42
S'plain'
p43
ss(S'image'
g5
tp44
(dp45
S'suggests'
p46
S'fdutils'
p47
sS'configs'
p48
(lp49
S'armhf/config'
p50
ass(S'base'
p51
g5
S'none'
p52
tp53
(dp54
S'implicit-flavour'
p55
I01
sS'flavours'
p56
(lp57
S'sun4i'
p58
ass(S'build'
g5
NS'sun4i'
tp59
(dp60
S'image-file'
p61
S'arch/arm/boot/zImage'
p62
ss(S'version'
p63
tp64
(dp65
S'abiname'
p66
S'3.0.0-4.sunxi.1'
p67
sS'source'
p68
V3.0.42-1
p69
ss(S'relations'
tp70
(dp71
S'initramfs-fallback'
p72
S'linux-initramfs-tool'
p73
sS'gcc-4.6'
p74
S'gcc-4.6'
p75
sS'initramfs-tools'
p76
S'initramfs-tools (>= 0.99~)'
p77
ss(S'base'
g5
tp78
(dp79
S'kernel-arch'
p80
S'arm'
p81
sS'featuresets'
p82
(lp83
g52
asstRp84
.